; Function Attrs: nounwind uwtable
define range(i64 1, 0) i64 @HUF_readStats_wksp(ptr noundef %0, i64 noundef %1, ptr noundef captures(none) %2, ptr noundef writeonly captures(none) %3, ptr noundef writeonly captures(none) %4, ptr noundef %5, i64 noundef %6, ptr noundef %7, i64 noundef %8, i32 noundef %9) local_unnamed_addr #1 {
  %11 = and i32 %9, 1
  %.not = icmp eq i32 %11, 0
  br i1 %.not, label %14, label %12

12:                                               ; preds = %10
  %13 = tail call fastcc i64 @HUF_readStats_body_bmi2(ptr noundef %0, i64 noundef %1, ptr noundef %2, ptr noundef %3, ptr noundef %4, ptr noundef %5, i64 noundef %6, ptr noundef %7, i64 noundef %8)
  br label %HUF_readStats_body_default.exit

14:                                               ; preds = %10
  %.not.i.i = icmp eq i64 %6, 0
  br i1 %.not.i.i, label %HUF_readStats_body_default.exit, label %15

15:                                               ; preds = %14
  %16 = load i8, ptr %5, align 1, !tbaa !12
  %17 = zext i8 %16 to i64
  %18 = icmp slt i8 %16, 0
  br i1 %18, label %19, label %36

19:                                               ; preds = %15
  %20 = add nsw i64 %17, -127
  %21 = add nsw i64 %17, -126
  %22 = lshr i64 %21, 1
  %.not89.i.i = icmp ult i64 %22, %6
  br i1 %.not89.i.i, label %23, label %HUF_readStats_body_default.exit

23:                                               ; preds = %19
  %.not90.i.i = icmp ult i64 %20, %1
  br i1 %.not90.i.i, label %24, label %HUF_readStats_body_default.exit

24:                                               ; preds = %23
  %25 = getelementptr inbounds nuw i8, ptr %5, i64 1
  %.not.i = icmp eq i64 %20, 0
  br i1 %.not.i, label %.loopexit.thread.i, label %.lr.ph.i

.loopexit.thread.i:                               ; preds = %24
  tail call void @llvm.memset.p0.i64(ptr noundef nonnull align 4 dereferenceable(52) %2, i8 0, i64 52, i1 false)
  br label %HUF_readStats_body_default.exit

.lr.ph.i:                                         ; preds = %24, %.lr.ph.i
  %indvars.iv.i = phi i64 [ %indvars.iv.next.i, %.lr.ph.i ], [ 0, %24 ]
  %26 = lshr exact i64 %indvars.iv.i, 1
  %27 = getelementptr inbounds nuw i8, ptr %25, i64 %26
  %28 = load i8, ptr %27, align 1, !tbaa !12
  %29 = lshr i8 %28, 4
  %30 = getelementptr inbounds nuw i8, ptr %0, i64 %indvars.iv.i
  store i8 %29, ptr %30, align 1, !tbaa !12
  %31 = load i8, ptr %27, align 1, !tbaa !12
  %32 = and i8 %31, 15
  %33 = or disjoint i64 %indvars.iv.i, 1
  %34 = getelementptr inbounds nuw i8, ptr %0, i64 %33
  store i8 %32, ptr %34, align 1, !tbaa !12
  %indvars.iv.next.i = add nuw nsw i64 %indvars.iv.i, 2
  %35 = icmp ult i64 %indvars.iv.next.i, %20
  br i1 %35, label %.lr.ph.i, label %.loopexit.i, !llvm.loop !13

36:                                               ; preds = %15
  %.not87.i.i = icmp ugt i64 %6, %17
  br i1 %.not87.i.i, label %37, label %HUF_readStats_body_default.exit

37:                                               ; preds = %36
  %38 = add i64 %1, -1
  %39 = getelementptr inbounds nuw i8, ptr %5, i64 1
  %40 = tail call i64 @FSE_decompress_wksp_bmi2(ptr noundef %0, i64 noundef %38, ptr noundef nonnull %39, i64 noundef %17, i32 noundef 6, ptr noundef %7, i64 noundef %8, i32 noundef 0) #10
  %41 = icmp ult i64 %40, -119
  br i1 %41, label %.loopexit.i, label %HUF_readStats_body_default.exit

.loopexit.i:                                      ; preds = %.lr.ph.i, %37
  %.074.i.i = phi i64 [ %40, %37 ], [ %20, %.lr.ph.i ]
  %.073.i.i = phi i64 [ %17, %37 ], [ %22, %.lr.ph.i ]
  tail call void @llvm.memset.p0.i64(ptr noundef nonnull align 4 dereferenceable(52) %2, i8 0, i64 52, i1 false)
  %.not91.i10.not.i = icmp eq i64 %.074.i.i, 0
  br i1 %.not91.i10.not.i, label %HUF_readStats_body_default.exit, label %.lr.ph13.i

.lr.ph13.i:                                       ; preds = %.loopexit.i, %46
  %42 = phi i64 [ %57, %46 ], [ 0, %.loopexit.i ]
  %.072.i12.i = phi i32 [ %55, %46 ], [ 0, %.loopexit.i ]
  %.075.i11.i = phi i32 [ %56, %46 ], [ 0, %.loopexit.i ]
  %43 = getelementptr inbounds nuw i8, ptr %0, i64 %42
  %44 = load i8, ptr %43, align 1, !tbaa !12
  %45 = icmp ugt i8 %44, 12
  br i1 %45, label %HUF_readStats_body_default.exit, label %46

46:                                               ; preds = %.lr.ph13.i
  %47 = zext nneg i8 %44 to i64
  %48 = getelementptr inbounds nuw i32, ptr %2, i64 %47
  %49 = load i32, ptr %48, align 4, !tbaa !3
  %50 = add i32 %49, 1
  store i32 %50, ptr %48, align 4, !tbaa !3
  %51 = load i8, ptr %43, align 1, !tbaa !12
  %52 = zext nneg i8 %51 to i32
  %53 = shl nuw i32 1, %52
  %54 = ashr i32 %53, 1
  %55 = add i32 %54, %.072.i12.i
  %56 = add i32 %.075.i11.i, 1
  %57 = zext i32 %56 to i64
  %.not91.i.i = icmp ugt i64 %.074.i.i, %57
  br i1 %.not91.i.i, label %.lr.ph13.i, label %.critedge.i.i, !llvm.loop !14

.critedge.i.i:                                    ; preds = %46
  %.old.i.i = icmp eq i32 %55, 0
  br i1 %.old.i.i, label %HUF_readStats_body_default.exit, label %58

58:                                               ; preds = %.critedge.i.i
  %59 = tail call range(i32 0, 32) i32 @llvm.ctlz.i32(i32 %55, i1 true)
  %60 = xor i32 %59, 31
  %61 = icmp samesign ugt i32 %60, 11
  br i1 %61, label %HUF_readStats_body_default.exit, label %62

62:                                               ; preds = %58
  %63 = sub nuw nsw i32 32, %59
  store i32 %63, ptr %4, align 4, !tbaa !3
  %64 = shl nuw nsw i32 2, %60
  %65 = sub i32 %64, %55
  %66 = tail call range(i32 0, 32) i32 @llvm.ctlz.i32(i32 %65, i1 true)
  %67 = xor i32 %66, 31
  %68 = shl nuw i32 1, %67
  %.not92.i.i = icmp eq i32 %68, %65
  br i1 %.not92.i.i, label %69, label %HUF_readStats_body_default.exit

69:                                               ; preds = %62
  %70 = sub nuw nsw i32 32, %66
  %71 = trunc nuw nsw i32 %70 to i8
  %72 = getelementptr inbounds nuw i8, ptr %0, i64 %.074.i.i
  store i8 %71, ptr %72, align 1, !tbaa !12
  %73 = zext nneg i32 %70 to i64
  %74 = getelementptr inbounds nuw i32, ptr %2, i64 %73
  %75 = load i32, ptr %74, align 4, !tbaa !3
  %76 = add i32 %75, 1
  store i32 %76, ptr %74, align 4, !tbaa !3
  %77 = getelementptr inbounds nuw i8, ptr %2, i64 4
  %78 = load i32, ptr %77, align 4, !tbaa !3
  %79 = icmp ugt i32 %78, 1
  %80 = and i32 %78, 1
  %.not93.i.i = icmp eq i32 %80, 0
  %or.cond.i.i = and i1 %79, %.not93.i.i
  br i1 %or.cond.i.i, label %81, label %HUF_readStats_body_default.exit

81:                                               ; preds = %69
  %82 = trunc i64 %.074.i.i to i32
  %83 = add i32 %82, 1
  store i32 %83, ptr %3, align 4, !tbaa !3
  %84 = add nuw nsw i64 %.073.i.i, 1
  br label %HUF_readStats_body_default.exit

HUF_readStats_body_default.exit:                  ; preds = %.lr.ph13.i, %81, %69, %62, %58, %.critedge.i.i, %.loopexit.i, %37, %36, %.loopexit.thread.i, %23, %19, %14, %12
  %.0 = phi i64 [ %13, %12 ], [ %84, %81 ], [ -72, %14 ], [ -72, %19 ], [ -20, %23 ], [ -72, %36 ], [ %40, %37 ], [ -20, %.critedge.i.i ], [ -20, %69 ], [ -20, %58 ], [ -20, %62 ], [ -20, %.loopexit.i ], [ -20, %.loopexit.thread.i ], [ -20, %.lr.ph13.i ]
  ret i64 %.0
}